target datalayout = "e-m:e-p270:32:32-p271:32:32-p272:64:64-i64:64-i128:128-f80:128-n8:16:32:64-S128"
target triple = "x86_64-pc-linux-gnu"

@.str.29 = private unnamed_addr constant [3 x i8] c".s\00", align 1
@globalUtilOptind = external global i32, align 4
@.str.47 = private unnamed_addr constant [60 x i8] c"Command line switch \22-N\22 should be followed by an integer.\0A\00", align 1
@.str.48 = private unnamed_addr constant [3 x i8] c"rb\00", align 1
@.str.58 = private unnamed_addr constant [2 x i8] c"\0A\00", align 1
@.str.79 = private unnamed_addr constant [4 x i8] c"yes\00", align 1
@.str.80 = private unnamed_addr constant [3 x i8] c"no\00", align 1
@.str.217 = private unnamed_addr constant [79 x i8] c"Command line switch \22-C\22 should be followed by a string (possibly in quotes).\0A\00", align 1
@.str.219 = private unnamed_addr constant [10 x i8] c"open_path\00", align 1
@.str.221 = private unnamed_addr constant [3 x i8] c".c\00", align 1
@.str.222 = private unnamed_addr constant [5 x i8] c".scr\00", align 1
@.str.223 = private unnamed_addr constant [8 x i8] c".script\00", align 1
@.str.224 = private unnamed_addr constant [19 x i8] c"Did you mean \22%s\22?\00", align 1
@.str.229 = private unnamed_addr constant [62 x i8] c"\09-v     : toggle printing verbose information [default = %s]\0A\00", align 1
@.str.230 = private unnamed_addr constant [35 x i8] c"\09-h     : print the command usage\0A\00", align 1
@.str.232 = private unnamed_addr constant [6 x i8] c"NCFvh\00", align 1
@.str.233 = private unnamed_addr constant [79 x i8] c"Command line switch \22-F\22 should be followed by a string (possibly in quotes).\0A\00", align 1
@.str.234 = private unnamed_addr constant [60 x i8] c"File containing configuration for autotuning is not given.\0A\00", align 1
@.str.235 = private unnamed_addr constant [59 x i8] c"File contining list of files for autotuning is not given.\0A\00", align 1
@.str.236 = private unnamed_addr constant [38 x i8] c"Cannot open configuration file \22%s\22. \00", align 1
@.str.237 = private unnamed_addr constant [33 x i8] c"Cannot open the file list \22%s\22. \00", align 1
@.str.238 = private unnamed_addr constant [53 x i8] c"usage: autotuner [-N num] [-C file] [-F file] [-vh]\0A\00", align 1
@.str.239 = private unnamed_addr constant [31 x i8] c"\09         performs autotuning\0A\00", align 1
@.str.240 = private unnamed_addr constant [81 x i8] c"\09-N num : the number of concurrent jobs including the controller [default = %d]\0A\00", align 1
@.str.241 = private unnamed_addr constant [59 x i8] c"\09-C cmd : configuration file with settings for autotuning\0A\00", align 1
@.str.242 = private unnamed_addr constant [57 x i8] c"\09-F cmd : list of AIGER files to be used for autotuning\0A\00", align 1

; Function Attrs: nounwind uwtable
define internal i32 @CmdCommandAutoTuner(ptr noundef %0, i32 noundef %1, ptr noundef %2) #0 {
  %4 = alloca i32, align 4
  %5 = alloca ptr, align 8
  %6 = alloca i32, align 4
  %7 = alloca ptr, align 8
  %8 = alloca ptr, align 8
  %9 = alloca ptr, align 8
  %10 = alloca ptr, align 8
  %11 = alloca ptr, align 8
  %12 = alloca i32, align 4
  %13 = alloca i32, align 4
  %14 = alloca i32, align 4
  store ptr %0, ptr %5, align 8
  store i32 %1, ptr %6, align 4
  store ptr %2, ptr %7, align 8
  store ptr null, ptr %9, align 8
  store ptr null, ptr %10, align 8
  store i32 3, ptr %13, align 4
  store i32 0, ptr %14, align 4
  call void (...) @Extra_UtilGetoptReset()
  br label %15

15:                                               ; preds = %71, %3
  %16 = load i32, ptr %6, align 4
  %17 = load ptr, ptr %7, align 8
  %18 = call i32 @Extra_UtilGetopt(i32 noundef %16, ptr noundef %17, ptr noundef @.str.232)
  store i32 %18, ptr %12, align 4
  %19 = icmp ne i32 %18, -1
  br i1 %19, label %20, label %72

20:                                               ; preds = %15
  %21 = load i32, ptr %12, align 4
  switch i32 %21, label %70 [
    i32 78, label %22
    i32 67, label %40
    i32 70, label %53
    i32 118, label %66
    i32 104, label %69
  ]

22:                                               ; preds = %20
  %23 = load i32, ptr @globalUtilOptind, align 4
  %24 = load i32, ptr %6, align 4
  %25 = icmp sge i32 %23, %24
  br i1 %25, label %26, label %27

26:                                               ; preds = %22
  call void (i32, ptr, ...) @Abc_Print(i32 noundef -1, ptr noundef @.str.47)
  br label %114

27:                                               ; preds = %22
  %28 = load ptr, ptr %7, align 8
  %29 = load i32, ptr @globalUtilOptind, align 4
  %30 = sext i32 %29 to i64
  %31 = getelementptr inbounds ptr, ptr %28, i64 %30
  %32 = load ptr, ptr %31, align 8
  %33 = call i32 @atoi(ptr noundef %32) #10
  store i32 %33, ptr %13, align 4
  %34 = load i32, ptr @globalUtilOptind, align 4
  %35 = add nsw i32 %34, 1
  store i32 %35, ptr @globalUtilOptind, align 4
  %36 = load i32, ptr %13, align 4
  %37 = icmp slt i32 %36, 0
  br i1 %37, label %38, label %39

38:                                               ; preds = %27
  br label %114

39:                                               ; preds = %27
  br label %71

40:                                               ; preds = %20
  %41 = load i32, ptr @globalUtilOptind, align 4
  %42 = load i32, ptr %6, align 4
  %43 = icmp sge i32 %41, %42
  br i1 %43, label %44, label %45

44:                                               ; preds = %40
  call void (i32, ptr, ...) @Abc_Print(i32 noundef -1, ptr noundef @.str.217)
  br label %114

45:                                               ; preds = %40
  %46 = load ptr, ptr %7, align 8
  %47 = load i32, ptr @globalUtilOptind, align 4
  %48 = sext i32 %47 to i64
  %49 = getelementptr inbounds ptr, ptr %46, i64 %48
  %50 = load ptr, ptr %49, align 8
  store ptr %50, ptr %9, align 8
  %51 = load i32, ptr @globalUtilOptind, align 4
  %52 = add nsw i32 %51, 1
  store i32 %52, ptr @globalUtilOptind, align 4
  br label %71

53:                                               ; preds = %20
  %54 = load i32, ptr @globalUtilOptind, align 4
  %55 = load i32, ptr %6, align 4
  %56 = icmp sge i32 %54, %55
  br i1 %56, label %57, label %58

57:                                               ; preds = %53
  call void (i32, ptr, ...) @Abc_Print(i32 noundef -1, ptr noundef @.str.233)
  br label %114

58:                                               ; preds = %53
  %59 = load ptr, ptr %7, align 8
  %60 = load i32, ptr @globalUtilOptind, align 4
  %61 = sext i32 %60 to i64
  %62 = getelementptr inbounds ptr, ptr %59, i64 %61
  %63 = load ptr, ptr %62, align 8
  store ptr %63, ptr %10, align 8
  %64 = load i32, ptr @globalUtilOptind, align 4
  %65 = add nsw i32 %64, 1
  store i32 %65, ptr @globalUtilOptind, align 4
  br label %71

66:                                               ; preds = %20
  %67 = load i32, ptr %14, align 4
  %68 = xor i32 %67, 1
  store i32 %68, ptr %14, align 4
  br label %71

69:                                               ; preds = %20
  br label %114

70:                                               ; preds = %20
  br label %114

71:                                               ; preds = %66, %58, %45, %39
  br label %15, !llvm.loop !31

72:                                               ; preds = %15
  %73 = load ptr, ptr %9, align 8
  %74 = icmp eq ptr %73, null
  br i1 %74, label %75, label %76

75:                                               ; preds = %72
  call void (i32, ptr, ...) @Abc_Print(i32 noundef -2, ptr noundef @.str.234)
  store i32 1, ptr %4, align 4
  br label %119

76:                                               ; preds = %72
  %77 = load ptr, ptr %10, align 8
  %78 = icmp eq ptr %77, null
  br i1 %78, label %79, label %80

79:                                               ; preds = %76
  call void (i32, ptr, ...) @Abc_Print(i32 noundef -2, ptr noundef @.str.235)
  store i32 1, ptr %4, align 4
  br label %119

80:                                               ; preds = %76
  %81 = load ptr, ptr %9, align 8
  store ptr %81, ptr %11, align 8
  %82 = load ptr, ptr %11, align 8
  %83 = call ptr @Io_FileOpen(ptr noundef %82, ptr noundef @.str.219, ptr noundef @.str.48, i32 noundef 0)
  store ptr %83, ptr %8, align 8
  %84 = icmp eq ptr %83, null
  br i1 %84, label %85, label %93

85:                                               ; preds = %80
  %86 = load ptr, ptr %11, align 8
  call void (i32, ptr, ...) @Abc_Print(i32 noundef -2, ptr noundef @.str.236, ptr noundef %86)
  %87 = load ptr, ptr %11, align 8
  %88 = call ptr @Extra_FileGetSimilarName(ptr noundef %87, ptr noundef @.str.221, ptr noundef @.str.29, ptr noundef @.str.222, ptr noundef @.str.223, ptr noundef null)
  store ptr %88, ptr %11, align 8
  %89 = icmp ne ptr %88, null
  br i1 %89, label %90, label %92

90:                                               ; preds = %85
  %91 = load ptr, ptr %11, align 8
  call void (i32, ptr, ...) @Abc_Print(i32 noundef -2, ptr noundef @.str.224, ptr noundef %91)
  br label %92

92:                                               ; preds = %90, %85
  call void (i32, ptr, ...) @Abc_Print(i32 noundef -2, ptr noundef @.str.58)
  store i32 1, ptr %4, align 4
  br label %119

93:                                               ; preds = %80
  %94 = load ptr, ptr %8, align 8
  %95 = call i32 @fclose(ptr noundef %94)
  %96 = load ptr, ptr %10, align 8
  store ptr %96, ptr %11, align 8
  %97 = load ptr, ptr %11, align 8
  %98 = call ptr @Io_FileOpen(ptr noundef %97, ptr noundef @.str.219, ptr noundef @.str.48, i32 noundef 0)
  store ptr %98, ptr %8, align 8
  %99 = icmp eq ptr %98, null
  br i1 %99, label %100, label %108

100:                                              ; preds = %93
  %101 = load ptr, ptr %11, align 8
  call void (i32, ptr, ...) @Abc_Print(i32 noundef -2, ptr noundef @.str.237, ptr noundef %101)
  %102 = load ptr, ptr %11, align 8
  %103 = call ptr @Extra_FileGetSimilarName(ptr noundef %102, ptr noundef @.str.221, ptr noundef @.str.29, ptr noundef @.str.222, ptr noundef @.str.223, ptr noundef null)
  store ptr %103, ptr %11, align 8
  %104 = icmp ne ptr %103, null
  br i1 %104, label %105, label %107

105:                                              ; preds = %100
  %106 = load ptr, ptr %11, align 8
  call void (i32, ptr, ...) @Abc_Print(i32 noundef -2, ptr noundef @.str.224, ptr noundef %106)
  br label %107

107:                                              ; preds = %105, %100
  call void (i32, ptr, ...) @Abc_Print(i32 noundef -2, ptr noundef @.str.58)
  store i32 1, ptr %4, align 4
  br label %119

108:                                              ; preds = %93
  %109 = load ptr, ptr %8, align 8
  %110 = call i32 @fclose(ptr noundef %109)
  %111 = load ptr, ptr %9, align 8
  %112 = load ptr, ptr %10, align 8
  %113 = load i32, ptr %13, align 4
  call void @Cmd_RunAutoTuner(ptr noundef %111, ptr noundef %112, i32 noundef %113)
  store i32 0, ptr %4, align 4
  br label %119

114:                                              ; preds = %70, %69, %57, %44, %38, %26
  call void (i32, ptr, ...) @Abc_Print(i32 noundef -2, ptr noundef @.str.238)
  call void (i32, ptr, ...) @Abc_Print(i32 noundef -2, ptr noundef @.str.239)
  %115 = load i32, ptr %13, align 4
  call void (i32, ptr, ...) @Abc_Print(i32 noundef -2, ptr noundef @.str.240, i32 noundef %115)
  call void (i32, ptr, ...) @Abc_Print(i32 noundef -2, ptr noundef @.str.241)
  call void (i32, ptr, ...) @Abc_Print(i32 noundef -2, ptr noundef @.str.242)
  %116 = load i32, ptr %14, align 4
  %117 = icmp ne i32 %116, 0
  %118 = select i1 %117, ptr @.str.79, ptr @.str.80
  call void (i32, ptr, ...) @Abc_Print(i32 noundef -2, ptr noundef @.str.229, ptr noundef %118)
  call void (i32, ptr, ...) @Abc_Print(i32 noundef -2, ptr noundef @.str.230)
  store i32 1, ptr %4, align 4
  br label %119

119:                                              ; preds = %114, %108, %107, %92, %79, %75
  %120 = load i32, ptr %4, align 4
  ret i32 %120
}