; Function Attrs: nounwind uwtable
define internal range(i32 0, 2) i32 @CmdCommandAutoTuner(ptr readnone captures(none) %0, i32 noundef %1, ptr noundef %2) #0 {
  tail call void (...) @Extra_UtilGetoptReset() #17
  br label %.outer

.outer:                                           ; preds = %17, %3
  %.035.ph = phi ptr [ %20, %17 ], [ null, %3 ]
  %.033.ph = phi ptr [ %.033.ph114, %17 ], [ null, %3 ]
  %.030.ph = phi i32 [ %.030.ph118, %17 ], [ 3, %3 ]
  %.0.ph = phi i32 [ %.0, %17 ], [ 0, %3 ]
  br label %.outer113

.outer113:                                        ; preds = %.outer, %24
  %.033.ph114 = phi ptr [ %.033.ph, %.outer ], [ %27, %24 ]
  %.030.ph115 = phi i32 [ %.030.ph, %.outer ], [ %.030.ph118, %24 ]
  %.0.ph116 = phi i32 [ %.0.ph, %.outer ], [ %.0, %24 ]
  br label %.outer117

.outer117:                                        ; preds = %.outer113, %8
  %.030.ph118 = phi i32 [ %.030.ph115, %.outer113 ], [ %12, %8 ]
  %.0.ph119 = phi i32 [ %.0.ph116, %.outer113 ], [ %.0, %8 ]
  br label %4

4:                                                ; preds = %.outer117, %29
  %.0 = phi i32 [ %30, %29 ], [ %.0.ph119, %.outer117 ]
  %5 = tail call i32 @Extra_UtilGetopt(i32 noundef %1, ptr noundef %2, ptr noundef nonnull @.str.232) #17
  switch i32 %5, label %.loopexit [
    i32 -1, label %31
    i32 78, label %6
    i32 67, label %15
    i32 70, label %22
    i32 118, label %29
  ]

6:                                                ; preds = %4
  %7 = load i32, ptr @globalUtilOptind, align 4
  %.not51 = icmp slt i32 %7, %1
  br i1 %.not51, label %8, label %.loopexit.sink.split

8:                                                ; preds = %6
  %9 = sext i32 %7 to i64
  %10 = getelementptr inbounds ptr, ptr %2, i64 %9
  %11 = load ptr, ptr %10, align 8
  %12 = tail call i32 @atoi(ptr noundef %11) #19
  %13 = add nsw i32 %7, 1
  store i32 %13, ptr @globalUtilOptind, align 4
  %14 = icmp slt i32 %12, 0
  br i1 %14, label %.loopexit, label %.outer117, !llvm.loop !31

15:                                               ; preds = %4
  %16 = load i32, ptr @globalUtilOptind, align 4
  %.not50 = icmp slt i32 %16, %1
  br i1 %.not50, label %17, label %.loopexit.sink.split

17:                                               ; preds = %15
  %18 = sext i32 %16 to i64
  %19 = getelementptr inbounds ptr, ptr %2, i64 %18
  %20 = load ptr, ptr %19, align 8
  %21 = add nsw i32 %16, 1
  store i32 %21, ptr @globalUtilOptind, align 4
  br label %.outer, !llvm.loop !31

22:                                               ; preds = %4
  %23 = load i32, ptr @globalUtilOptind, align 4
  %.not49 = icmp slt i32 %23, %1
  br i1 %.not49, label %24, label %.loopexit.sink.split

24:                                               ; preds = %22
  %25 = sext i32 %23 to i64
  %26 = getelementptr inbounds ptr, ptr %2, i64 %25
  %27 = load ptr, ptr %26, align 8
  %28 = add nsw i32 %23, 1
  store i32 %28, ptr @globalUtilOptind, align 4
  br label %.outer113, !llvm.loop !31

29:                                               ; preds = %4
  %30 = xor i32 %.0, 1
  br label %4, !llvm.loop !31

31:                                               ; preds = %4
  %32 = icmp eq ptr %.035.ph, null
  br i1 %32, label %33, label %34

33:                                               ; preds = %31
  tail call void (i32, ptr, ...) @Abc_Print(i32 noundef -2, ptr noundef nonnull @.str.234)
  br label %55

34:                                               ; preds = %31
  %35 = icmp eq ptr %.033.ph114, null
  br i1 %35, label %36, label %37

36:                                               ; preds = %34
  tail call void (i32, ptr, ...) @Abc_Print(i32 noundef -2, ptr noundef nonnull @.str.235)
  br label %55

37:                                               ; preds = %34
  %38 = tail call ptr @Io_FileOpen(ptr noundef nonnull %.035.ph, ptr noundef nonnull @.str.219, ptr noundef nonnull @.str.48, i32 noundef 0) #17
  %39 = icmp eq ptr %38, null
  br i1 %39, label %40, label %44

40:                                               ; preds = %37
  tail call void (i32, ptr, ...) @Abc_Print(i32 noundef -2, ptr noundef nonnull @.str.236, ptr noundef nonnull %.035.ph)
  %41 = tail call ptr @Extra_FileGetSimilarName(ptr noundef nonnull %.035.ph, ptr noundef nonnull @.str.221, ptr noundef nonnull @.str.29, ptr noundef nonnull @.str.222, ptr noundef nonnull @.str.223, ptr noundef null) #17
  %.not48 = icmp eq ptr %41, null
  br i1 %.not48, label %43, label %42

42:                                               ; preds = %40
  tail call void (i32, ptr, ...) @Abc_Print(i32 noundef -2, ptr noundef nonnull @.str.224, ptr noundef nonnull %41)
  br label %43

43:                                               ; preds = %42, %40
  tail call void (i32, ptr, ...) @Abc_Print(i32 noundef -2, ptr noundef nonnull @.str.58)
  br label %55

44:                                               ; preds = %37
  %45 = tail call i32 @fclose(ptr noundef nonnull %38)
  %46 = tail call ptr @Io_FileOpen(ptr noundef nonnull %.033.ph114, ptr noundef nonnull @.str.219, ptr noundef nonnull @.str.48, i32 noundef 0) #17
  %47 = icmp eq ptr %46, null
  br i1 %47, label %48, label %52

48:                                               ; preds = %44
  tail call void (i32, ptr, ...) @Abc_Print(i32 noundef -2, ptr noundef nonnull @.str.237, ptr noundef nonnull %.033.ph114)
  %49 = tail call ptr @Extra_FileGetSimilarName(ptr noundef nonnull %.033.ph114, ptr noundef nonnull @.str.221, ptr noundef nonnull @.str.29, ptr noundef nonnull @.str.222, ptr noundef nonnull @.str.223, ptr noundef null) #17
  %.not47 = icmp eq ptr %49, null
  br i1 %.not47, label %51, label %50

50:                                               ; preds = %48
  tail call void (i32, ptr, ...) @Abc_Print(i32 noundef -2, ptr noundef nonnull @.str.224, ptr noundef nonnull %49)
  br label %51

51:                                               ; preds = %50, %48
  tail call void (i32, ptr, ...) @Abc_Print(i32 noundef -2, ptr noundef nonnull @.str.58)
  br label %55

52:                                               ; preds = %44
  %53 = tail call i32 @fclose(ptr noundef nonnull %46)
  tail call void @Cmd_RunAutoTuner(ptr noundef nonnull %.035.ph, ptr noundef nonnull %.033.ph114, i32 noundef %.030.ph118) #17
  br label %55

.loopexit.sink.split:                             ; preds = %15, %6, %22
  %.str.233.sink = phi ptr [ @.str.47, %6 ], [ @.str.233, %22 ], [ @.str.217, %15 ]
  tail call void (i32, ptr, ...) @Abc_Print(i32 noundef -1, ptr noundef nonnull %.str.233.sink)
  br label %.loopexit

.loopexit:                                        ; preds = %4, %8, %.loopexit.sink.split
  %.131 = phi i32 [ %.030.ph118, %.loopexit.sink.split ], [ %.030.ph118, %4 ], [ %12, %8 ]
  tail call void (i32, ptr, ...) @Abc_Print(i32 noundef -2, ptr noundef nonnull @.str.238)
  tail call void (i32, ptr, ...) @Abc_Print(i32 noundef -2, ptr noundef nonnull @.str.239)
  tail call void (i32, ptr, ...) @Abc_Print(i32 noundef -2, ptr noundef nonnull @.str.240, i32 noundef %.131)
  tail call void (i32, ptr, ...) @Abc_Print(i32 noundef -2, ptr noundef nonnull @.str.241)
  tail call void (i32, ptr, ...) @Abc_Print(i32 noundef -2, ptr noundef nonnull @.str.242)
  %.not52 = icmp eq i32 %.0, 0
  %54 = select i1 %.not52, ptr @.str.80, ptr @.str.79
  tail call void (i32, ptr, ...) @Abc_Print(i32 noundef -2, ptr noundef nonnull @.str.229, ptr noundef nonnull %54)
  tail call void (i32, ptr, ...) @Abc_Print(i32 noundef -2, ptr noundef nonnull @.str.230)
  br label %55

55:                                               ; preds = %.loopexit, %52, %51, %43, %36, %33
  %.032 = phi i32 [ 1, %.loopexit ], [ 1, %33 ], [ 1, %36 ], [ 1, %43 ], [ 1, %51 ], [ 0, %52 ]
  ret i32 %.032
}